; Function Attrs: mustprogress uwtable
define void @_ZN5dtm_t11select_hartEi(ptr nocapture noundef nonnull align 8 dereferenceable(928) %0, i32 noundef %1) local_unnamed_addr #0 align 2 {
  %3 = getelementptr inbounds i8, ptr %0, i64 872
  store i64 4294967312, ptr %3, align 8
  %.sroa.22.0..sroa_idx.i.i = getelementptr inbounds i8, ptr %0, i64 880
  store i32 0, ptr %.sroa.22.0..sroa_idx.i.i, align 8
  %4 = getelementptr inbounds i8, ptr %0, i64 728
  %5 = load ptr, ptr %4, align 8
  tail call void @_ZN9context_t9switch_toEv(ptr noundef nonnull align 8 dereferenceable(32) %5)
  %6 = getelementptr inbounds i8, ptr %0, i64 888
  %7 = load i32, ptr %6, align 8
  %8 = and i32 %7, -67108865
  %9 = shl nsw i32 %1, 26
  %10 = and i32 %9, 67108864
  %11 = or disjoint i32 %8, %10
  store i64 8589934608, ptr %3, align 8
  store i32 %11, ptr %.sroa.22.0..sroa_idx.i.i, align 8
  %12 = load ptr, ptr %4, align 8
  tail call void @_ZN9context_t9switch_toEv(ptr noundef nonnull align 8 dereferenceable(32) %12)
  %13 = getelementptr inbounds i8, ptr %0, i64 924
  store i32 %1, ptr %13, align 4
  ret void
}